target datalayout = "e-m:e-p270:32:32-p271:32:32-p272:64:64-i64:64-i128:128-f80:128-n8:16:32:64-S128"
target triple = "x86_64-pc-linux-gnu"

%struct._extcap_complex = type { i32, ptr }
%struct._extcap_arg = type { i32, ptr, ptr, ptr, ptr, ptr, i8, i8, i8, i8, ptr, ptr, i32, ptr, ptr, ptr, ptr, ptr, ptr }

; Function Attrs: null_pointer_is_valid sspstrong uwtable
define hidden void @extcap_free_complex(ptr noundef %0) #0 {
  %2 = alloca ptr, align 8
  store ptr %0, ptr %2, align 8
  %3 = load ptr, ptr %2, align 8
  %4 = icmp ne ptr %3, null
  br i1 %4, label %5, label %9

5:                                                ; preds = %1
  %6 = load ptr, ptr %2, align 8
  %7 = getelementptr inbounds nuw %struct._extcap_complex, ptr %6, i32 0, i32 1
  %8 = load ptr, ptr %7, align 8
  call void @g_free(ptr noundef %8)
  br label %9

9:                                                ; preds = %5, %1
  %10 = load ptr, ptr %2, align 8
  call void @g_free(ptr noundef %10)
  ret void
}

; Function Attrs: null_pointer_is_valid sspstrong uwtable
define hidden void @extcap_free_arg(ptr noundef %0) #0 {
  %2 = alloca ptr, align 8
  store ptr %0, ptr %2, align 8
  %3 = load ptr, ptr %2, align 8
  %4 = icmp eq ptr %3, null
  br i1 %4, label %5, label %6

5:                                                ; preds = %1
  br label %65

6:                                                ; preds = %1
  %7 = load ptr, ptr %2, align 8
  %8 = getelementptr inbounds nuw %struct._extcap_arg, ptr %7, i32 0, i32 1
  %9 = load ptr, ptr %8, align 8
  call void @g_free(ptr noundef %9)
  %10 = load ptr, ptr %2, align 8
  %11 = getelementptr inbounds nuw %struct._extcap_arg, ptr %10, i32 0, i32 2
  %12 = load ptr, ptr %11, align 8
  call void @g_free(ptr noundef %12)
  %13 = load ptr, ptr %2, align 8
  %14 = getelementptr inbounds nuw %struct._extcap_arg, ptr %13, i32 0, i32 3
  %15 = load ptr, ptr %14, align 8
  call void @g_free(ptr noundef %15)
  %16 = load ptr, ptr %2, align 8
  %17 = getelementptr inbounds nuw %struct._extcap_arg, ptr %16, i32 0, i32 4
  %18 = load ptr, ptr %17, align 8
  call void @g_free(ptr noundef %18)
  %19 = load ptr, ptr %2, align 8
  %20 = getelementptr inbounds nuw %struct._extcap_arg, ptr %19, i32 0, i32 5
  %21 = load ptr, ptr %20, align 8
  call void @g_free(ptr noundef %21)
  %22 = load ptr, ptr %2, align 8
  %23 = getelementptr inbounds nuw %struct._extcap_arg, ptr %22, i32 0, i32 10
  %24 = load ptr, ptr %23, align 8
  call void @g_free(ptr noundef %24)
  %25 = load ptr, ptr %2, align 8
  %26 = getelementptr inbounds nuw %struct._extcap_arg, ptr %25, i32 0, i32 11
  %27 = load ptr, ptr %26, align 8
  call void @g_free(ptr noundef %27)
  %28 = load ptr, ptr %2, align 8
  %29 = getelementptr inbounds nuw %struct._extcap_arg, ptr %28, i32 0, i32 17
  %30 = load ptr, ptr %29, align 8
  call void @g_free(ptr noundef %30)
  %31 = load ptr, ptr %2, align 8
  %32 = getelementptr inbounds nuw %struct._extcap_arg, ptr %31, i32 0, i32 13
  %33 = load ptr, ptr %32, align 8
  %34 = icmp ne ptr %33, null
  br i1 %34, label %35, label %39

35:                                               ; preds = %6
  %36 = load ptr, ptr %2, align 8
  %37 = getelementptr inbounds nuw %struct._extcap_arg, ptr %36, i32 0, i32 13
  %38 = load ptr, ptr %37, align 8
  call void @extcap_free_complex(ptr noundef %38)
  br label %39

39:                                               ; preds = %35, %6
  %40 = load ptr, ptr %2, align 8
  %41 = getelementptr inbounds nuw %struct._extcap_arg, ptr %40, i32 0, i32 14
  %42 = load ptr, ptr %41, align 8
  %43 = icmp ne ptr %42, null
  br i1 %43, label %44, label %48

44:                                               ; preds = %39
  %45 = load ptr, ptr %2, align 8
  %46 = getelementptr inbounds nuw %struct._extcap_arg, ptr %45, i32 0, i32 14
  %47 = load ptr, ptr %46, align 8
  call void @extcap_free_complex(ptr noundef %47)
  br label %48

48:                                               ; preds = %44, %39
  %49 = load ptr, ptr %2, align 8
  %50 = getelementptr inbounds nuw %struct._extcap_arg, ptr %49, i32 0, i32 15
  %51 = load ptr, ptr %50, align 8
  %52 = icmp ne ptr %51, null
  br i1 %52, label %53, label %57

53:                                               ; preds = %48
  %54 = load ptr, ptr %2, align 8
  %55 = getelementptr inbounds nuw %struct._extcap_arg, ptr %54, i32 0, i32 15
  %56 = load ptr, ptr %55, align 8
  call void @extcap_free_complex(ptr noundef %56)
  br label %57

57:                                               ; preds = %53, %48
  %58 = load ptr, ptr %2, align 8
  %59 = getelementptr inbounds nuw %struct._extcap_arg, ptr %58, i32 0, i32 18
  %60 = load ptr, ptr %59, align 8
  call void @g_list_foreach(ptr noundef %60, ptr noundef @extcap_free_valuelist, ptr noundef null)
  %61 = load ptr, ptr %2, align 8
  %62 = getelementptr inbounds nuw %struct._extcap_arg, ptr %61, i32 0, i32 18
  %63 = load ptr, ptr %62, align 8
  call void @g_list_free(ptr noundef %63)
  %64 = load ptr, ptr %2, align 8
  call void @g_free(ptr noundef %64)
  br label %65

65:                                               ; preds = %57, %5
  ret void
}