; Function Attrs: null_pointer_is_valid sspstrong uwtable
define hidden void @extcap_free_arg(ptr noundef %0) #0 {
  %2 = icmp eq ptr %0, null
  br i1 %2, label %38, label %3

3:                                                ; preds = %1
  %4 = getelementptr inbounds nuw i8, ptr %0, i64 8
  %5 = load ptr, ptr %4, align 8
  tail call void @g_free(ptr noundef %5)
  %6 = getelementptr inbounds nuw i8, ptr %0, i64 16
  %7 = load ptr, ptr %6, align 8
  tail call void @g_free(ptr noundef %7)
  %8 = getelementptr inbounds nuw i8, ptr %0, i64 24
  %9 = load ptr, ptr %8, align 8
  tail call void @g_free(ptr noundef %9)
  %10 = getelementptr inbounds nuw i8, ptr %0, i64 32
  %11 = load ptr, ptr %10, align 8
  tail call void @g_free(ptr noundef %11)
  %12 = getelementptr inbounds nuw i8, ptr %0, i64 40
  %13 = load ptr, ptr %12, align 8
  tail call void @g_free(ptr noundef %13)
  %14 = getelementptr inbounds nuw i8, ptr %0, i64 56
  %15 = load ptr, ptr %14, align 8
  tail call void @g_free(ptr noundef %15)
  %16 = getelementptr inbounds nuw i8, ptr %0, i64 64
  %17 = load ptr, ptr %16, align 8
  tail call void @g_free(ptr noundef %17)
  %18 = getelementptr inbounds nuw i8, ptr %0, i64 112
  %19 = load ptr, ptr %18, align 8
  tail call void @g_free(ptr noundef %19)
  %20 = getelementptr inbounds nuw i8, ptr %0, i64 80
  %21 = load ptr, ptr %20, align 8
  %.not = icmp eq ptr %21, null
  br i1 %.not, label %24, label %extcap_free_complex.exit

extcap_free_complex.exit:                         ; preds = %3
  %22 = getelementptr inbounds nuw i8, ptr %21, i64 8
  %23 = load ptr, ptr %22, align 8
  tail call void @g_free(ptr noundef %23)
  tail call void @g_free(ptr noundef nonnull %21)
  br label %24

24:                                               ; preds = %extcap_free_complex.exit, %3
  %25 = getelementptr inbounds nuw i8, ptr %0, i64 88
  %26 = load ptr, ptr %25, align 8
  %.not21 = icmp eq ptr %26, null
  br i1 %.not21, label %29, label %extcap_free_complex.exit24

extcap_free_complex.exit24:                       ; preds = %24
  %27 = getelementptr inbounds nuw i8, ptr %26, i64 8
  %28 = load ptr, ptr %27, align 8
  tail call void @g_free(ptr noundef %28)
  tail call void @g_free(ptr noundef nonnull %26)
  br label %29

29:                                               ; preds = %extcap_free_complex.exit24, %24
  %30 = getelementptr inbounds nuw i8, ptr %0, i64 96
  %31 = load ptr, ptr %30, align 8
  %.not22 = icmp eq ptr %31, null
  br i1 %.not22, label %34, label %extcap_free_complex.exit26

extcap_free_complex.exit26:                       ; preds = %29
  %32 = getelementptr inbounds nuw i8, ptr %31, i64 8
  %33 = load ptr, ptr %32, align 8
  tail call void @g_free(ptr noundef %33)
  tail call void @g_free(ptr noundef nonnull %31)
  br label %34

34:                                               ; preds = %extcap_free_complex.exit26, %29
  %35 = getelementptr inbounds nuw i8, ptr %0, i64 120
  %36 = load ptr, ptr %35, align 8
  tail call void @g_list_foreach(ptr noundef %36, ptr noundef nonnull @extcap_free_valuelist, ptr noundef null)
  %37 = load ptr, ptr %35, align 8
  tail call void @g_list_free(ptr noundef %37)
  tail call void @g_free(ptr noundef nonnull %0)
  br label %38

38:                                               ; preds = %1, %34
  ret void
}